; Function Attrs: nounwind sspstrong uwtable
define internal range(i64 -1, 4294967296) i64 @virtio_pci_device_read(ptr noundef readonly captures(none) %0, i64 noundef %1, i32 noundef %2) #0 {
  %4 = getelementptr i8, ptr %0, i64 34160
  %.val = load ptr, ptr %4, align 8
  %.not.i = icmp eq ptr %.val, null
  br i1 %.not.i, label %virtio_bus_get_device.exit.thread, label %virtio_bus_get_device.exit

virtio_bus_get_device.exit:                       ; preds = %3
  %5 = getelementptr inbounds nuw i8, ptr %.val, i64 16
  %6 = load ptr, ptr %5, align 8
  %7 = icmp eq ptr %6, null
  br i1 %7, label %virtio_bus_get_device.exit.thread, label %8

8:                                                ; preds = %virtio_bus_get_device.exit
  switch i32 %2, label %18 [
    i32 1, label %9
    i32 2, label %12
    i32 4, label %15
  ]

9:                                                ; preds = %8
  %10 = trunc i64 %1 to i32
  %11 = tail call i32 @virtio_config_modern_readb(ptr noundef nonnull %6, i32 noundef %10) #15
  br label %18

12:                                               ; preds = %8
  %13 = trunc i64 %1 to i32
  %14 = tail call i32 @virtio_config_modern_readw(ptr noundef nonnull %6, i32 noundef %13) #15
  br label %18

15:                                               ; preds = %8
  %16 = trunc i64 %1 to i32
  %17 = tail call i32 @virtio_config_modern_readl(ptr noundef nonnull %6, i32 noundef %16) #15
  br label %18

18:                                               ; preds = %8, %15, %12, %9
  %.0.shrunk = phi i32 [ %17, %15 ], [ %14, %12 ], [ %11, %9 ], [ 0, %8 ]
  %.0 = zext i32 %.0.shrunk to i64
  br label %virtio_bus_get_device.exit.thread

virtio_bus_get_device.exit.thread:                ; preds = %3, %virtio_bus_get_device.exit, %18
  %.011 = phi i64 [ %.0, %18 ], [ -1, %virtio_bus_get_device.exit ], [ -1, %3 ]
  ret i64 %.011
}